target datalayout = "e-m:e-p270:32:32-p271:32:32-p272:64:64-i64:64-i128:128-f80:128-n8:16:32:64-S128"
target triple = "x86_64-unknown-linux-gnu"

%"class.std::__cxx11::basic_string" = type { %"struct.std::__cxx11::basic_string<char>::_Alloc_hider", i64, %union.anon }
%"struct.std::__cxx11::basic_string<char>::_Alloc_hider" = type { ptr }
%union.anon = type { i64, [8 x i8] }
%struct.tm = type { i32, i32, i32, i32, i32, i32, i32, i32, i32, i64, ptr }

@.str.53 = private unnamed_addr constant [31 x i8] c"%04d/%02d/%02d-%02d:%02d:%02d \00", align 1

; Function Attrs: mustprogress nounwind uwtable
define linkonce_odr noundef ptr @_ZN7rocksdb4port10LocalTimeREPKlP2tm(ptr noundef %timep, ptr noundef %result) #3 comdat {
entry:
  %timep.addr = alloca ptr, align 8
  %result.addr = alloca ptr, align 8
  store ptr %timep, ptr %timep.addr, align 8
  store ptr %result, ptr %result.addr, align 8
  %0 = load ptr, ptr %timep.addr, align 8
  %1 = load ptr, ptr %result.addr, align 8
  %call = call ptr @localtime_r(ptr noundef %0, ptr noundef %1) #4
  ret ptr %call
}

; Function Attrs: mustprogress uwtable
define internal void @_ZN7rocksdb12_GLOBAL__N_110PosixClock12TimeToStringB5cxx11Em(ptr noalias sret(%"class.std::__cxx11::basic_string") align 8 %agg.result, ptr noundef nonnull align 8 dereferenceable(32) %this, i64 noundef %secondsSince1970) unnamed_addr #2 align 2 personality ptr @__gxx_personality_v0 {
entry:
  %result.ptr = alloca ptr, align 8
  %this.addr = alloca ptr, align 8
  %secondsSince1970.addr = alloca i64, align 8
  %seconds = alloca i64, align 8
  %t = alloca %struct.tm, align 8
  %maxsize = alloca i32, align 4
  %nrvo = alloca i1, align 1
  %exn.slot = alloca ptr, align 8
  %ehselector.slot = alloca i32, align 4
  %p = alloca ptr, align 8
  store ptr %agg.result, ptr %result.ptr, align 8
  store ptr %this, ptr %this.addr, align 8
  store i64 %secondsSince1970, ptr %secondsSince1970.addr, align 8
  %0 = load i64, ptr %secondsSince1970.addr, align 8
  store i64 %0, ptr %seconds, align 8
  store i32 64, ptr %maxsize, align 4
  store i1 false, ptr %nrvo, align 1
  call void @_ZNSt7__cxx1112basic_stringIcSt11char_traitsIcESaIcEEC1Ev(ptr noundef nonnull align 8 dereferenceable(32) %agg.result) #4
  %1 = load i32, ptr %maxsize, align 4
  %conv = sext i32 %1 to i64
  invoke void @_ZNSt7__cxx1112basic_stringIcSt11char_traitsIcESaIcEE7reserveEm(ptr noundef nonnull align 8 dereferenceable(32) %agg.result, i64 noundef %conv)
          to label %invoke.cont unwind label %lpad

invoke.cont:                                      ; preds = %entry
  %2 = load i32, ptr %maxsize, align 4
  %conv2 = sext i32 %2 to i64
  invoke void @_ZNSt7__cxx1112basic_stringIcSt11char_traitsIcESaIcEE6resizeEm(ptr noundef nonnull align 8 dereferenceable(32) %agg.result, i64 noundef %conv2)
          to label %invoke.cont3 unwind label %lpad

invoke.cont3:                                     ; preds = %invoke.cont
  %call = call noundef ptr @_ZNSt7__cxx1112basic_stringIcSt11char_traitsIcESaIcEE4dataEv(ptr noundef nonnull align 8 dereferenceable(32) %agg.result) #4
  store ptr %call, ptr %p, align 8
  %call5 = invoke noundef ptr @_ZN7rocksdb4port10LocalTimeREPKlP2tm(ptr noundef %seconds, ptr noundef %t)
          to label %invoke.cont4 unwind label %lpad

invoke.cont4:                                     ; preds = %invoke.cont3
  %3 = load ptr, ptr %p, align 8
  %4 = load i32, ptr %maxsize, align 4
  %conv6 = sext i32 %4 to i64
  %tm_year = getelementptr inbounds %struct.tm, ptr %t, i32 0, i32 5
  %5 = load i32, ptr %tm_year, align 4
  %add = add nsw i32 %5, 1900
  %tm_mon = getelementptr inbounds %struct.tm, ptr %t, i32 0, i32 4
  %6 = load i32, ptr %tm_mon, align 8
  %add7 = add nsw i32 %6, 1
  %tm_mday = getelementptr inbounds %struct.tm, ptr %t, i32 0, i32 3
  %7 = load i32, ptr %tm_mday, align 4
  %tm_hour = getelementptr inbounds %struct.tm, ptr %t, i32 0, i32 2
  %8 = load i32, ptr %tm_hour, align 8
  %tm_min = getelementptr inbounds %struct.tm, ptr %t, i32 0, i32 1
  %9 = load i32, ptr %tm_min, align 4
  %tm_sec = getelementptr inbounds %struct.tm, ptr %t, i32 0, i32 0
  %10 = load i32, ptr %tm_sec, align 8
  %call8 = call i32 (ptr, i64, ptr, ...) @snprintf(ptr noundef %3, i64 noundef %conv6, ptr noundef @.str.53, i32 noundef %add, i32 noundef %add7, i32 noundef %7, i32 noundef %8, i32 noundef %9, i32 noundef %10) #4
  store i1 true, ptr %nrvo, align 1
  %nrvo.val = load i1, ptr %nrvo, align 1
  br i1 %nrvo.val, label %nrvo.skipdtor, label %nrvo.unused

lpad:                                             ; preds = %invoke.cont3, %invoke.cont, %entry
  %11 = landingpad { ptr, i32 }
          cleanup
  %12 = extractvalue { ptr, i32 } %11, 0
  store ptr %12, ptr %exn.slot, align 8
  %13 = extractvalue { ptr, i32 } %11, 1
  store i32 %13, ptr %ehselector.slot, align 4
  call void @_ZNSt7__cxx1112basic_stringIcSt11char_traitsIcESaIcEED1Ev(ptr noundef nonnull align 8 dereferenceable(32) %agg.result) #4
  br label %eh.resume

nrvo.unused:                                      ; preds = %invoke.cont4
  call void @_ZNSt7__cxx1112basic_stringIcSt11char_traitsIcESaIcEED1Ev(ptr noundef nonnull align 8 dereferenceable(32) %agg.result) #4
  br label %nrvo.skipdtor

nrvo.skipdtor:                                    ; preds = %nrvo.unused, %invoke.cont4
  ret void

eh.resume:                                        ; preds = %lpad
  %exn = load ptr, ptr %exn.slot, align 8
  %sel = load i32, ptr %ehselector.slot, align 4
  %lpad.val = insertvalue { ptr, i32 } poison, ptr %exn, 0
  %lpad.val9 = insertvalue { ptr, i32 } %lpad.val, i32 %sel, 1
  resume { ptr, i32 } %lpad.val9
}