; Function Attrs: mustprogress uwtable
define internal void @_ZN7rocksdb12_GLOBAL__N_110PosixClock12TimeToStringB5cxx11Em(ptr noalias nonnull sret(%"class.std::__cxx11::basic_string") align 8 %agg.result, ptr nocapture nonnull readnone align 8 %this, i64 noundef %secondsSince1970) unnamed_addr #3 align 2 personality ptr @__gxx_personality_v0 {
entry:
  %seconds = alloca i64, align 8
  %t = alloca %struct.tm, align 8
  store i64 %secondsSince1970, ptr %seconds, align 8
  tail call void @_ZNSt7__cxx1112basic_stringIcSt11char_traitsIcESaIcEEC1Ev(ptr noundef nonnull align 8 dereferenceable(32) %agg.result) #22
  invoke void @_ZNSt7__cxx1112basic_stringIcSt11char_traitsIcESaIcEE7reserveEm(ptr noundef nonnull align 8 dereferenceable(32) %agg.result, i64 noundef 64)
          to label %invoke.cont unwind label %lpad

invoke.cont:                                      ; preds = %entry
  invoke void @_ZNSt7__cxx1112basic_stringIcSt11char_traitsIcESaIcEE6resizeEm(ptr noundef nonnull align 8 dereferenceable(32) %agg.result, i64 noundef 64)
          to label %invoke.cont3 unwind label %lpad

invoke.cont3:                                     ; preds = %invoke.cont
  %call = tail call noundef ptr @_ZNSt7__cxx1112basic_stringIcSt11char_traitsIcESaIcEE4dataEv(ptr noundef nonnull align 8 dereferenceable(32) %agg.result) #22
  %call.i = call noundef ptr @localtime_r(ptr noundef nonnull %seconds, ptr noundef nonnull %t) #22
  %tm_year = getelementptr inbounds i8, ptr %t, i64 20
  %0 = load i32, ptr %tm_year, align 4
  %add = add nsw i32 %0, 1900
  %tm_mon = getelementptr inbounds i8, ptr %t, i64 16
  %1 = load i32, ptr %tm_mon, align 8
  %add7 = add nsw i32 %1, 1
  %tm_mday = getelementptr inbounds i8, ptr %t, i64 12
  %2 = load i32, ptr %tm_mday, align 4
  %tm_hour = getelementptr inbounds i8, ptr %t, i64 8
  %3 = load i32, ptr %tm_hour, align 8
  %tm_min = getelementptr inbounds i8, ptr %t, i64 4
  %4 = load i32, ptr %tm_min, align 4
  %5 = load i32, ptr %t, align 8
  %call8 = call i32 (ptr, i64, ptr, ...) @snprintf(ptr noundef nonnull dereferenceable(1) %call, i64 noundef 64, ptr noundef nonnull @.str.53, i32 noundef %add, i32 noundef %add7, i32 noundef %2, i32 noundef %3, i32 noundef %4, i32 noundef %5) #22
  ret void

lpad:                                             ; preds = %invoke.cont, %entry
  %6 = landingpad { ptr, i32 }
          cleanup
  tail call void @_ZNSt7__cxx1112basic_stringIcSt11char_traitsIcESaIcEED1Ev(ptr noundef nonnull align 8 dereferenceable(32) %agg.result) #22
  resume { ptr, i32 } %6
}